; Function Attrs: nounwind uwtable
define internal ptr @typealias_type_params(ptr noundef readonly captures(none) %0, ptr readnone captures(none) %1) #0 {
  %3 = getelementptr inbounds nuw i8, ptr %0, i64 24
  %4 = load ptr, ptr %3, align 8, !tbaa !134
  %5 = icmp eq ptr %4, null
  br i1 %5, label %6, label %8

6:                                                ; preds = %2
  %7 = tail call ptr @PyTuple_New(i64 noundef 0) #8
  br label %_Py_NewRef.exit

8:                                                ; preds = %2
  %9 = load i32, ptr %4, align 8, !tbaa !27
  %10 = icmp slt i32 %9, 0
  br i1 %10, label %_Py_NewRef.exit, label %11

11:                                               ; preds = %8
  %12 = add nuw i32 %9, 1
  store i32 %12, ptr %4, align 8, !tbaa !27
  br label %_Py_NewRef.exit

_Py_NewRef.exit:                                  ; preds = %11, %8, %6
  %.0 = phi ptr [ %7, %6 ], [ %4, %8 ], [ %4, %11 ]
  ret ptr %.0
}